; ModuleID = '57/1139.c'
source_filename = "57/1139.c"
target datalayout = "e-m:e-p270:32:32-p271:32:32-p272:64:64-i64:64-f80:128-n8:16:32:64-S128"
target triple = "x86_64-pc-linux-gnu"

@.str = private unnamed_addr constant [3 x i8] c"%d\00", align 1
@.str.1 = private unnamed_addr constant [3 x i8] c"%s\00", align 1
@.str.2 = private unnamed_addr constant [3 x i8] c"%c\00", align 1
@.str.3 = private unnamed_addr constant [2 x i8] c"\0A\00", align 1
@.str.4 = private unnamed_addr constant [4 x i8] c"%c\0A\00", align 1

; Function Attrs: noinline nounwind uwtable
define dso_local i32 @main() #0 {
  %1 = alloca i32, align 4
  %2 = alloca i32, align 4
  %3 = alloca i32, align 4
  %4 = alloca i32, align 4
  %5 = alloca [50 x [33 x i8]], align 16
  %6 = alloca i32, align 4
  store i32 0, i32* %1, align 4
  %7 = call i32 (i8*, ...) @__isoc99_scanf(i8* getelementptr inbounds ([3 x i8], [3 x i8]* @.str, i64 0, i64 0), i32* %2)
  store i32 0, i32* %3, align 4
  br label %8

8:                                                ; preds = %18, %0
  %9 = load i32, i32* %3, align 4
  %10 = load i32, i32* %2, align 4
  %11 = icmp slt i32 %9, %10
  br i1 %11, label %12, label %21

12:                                               ; preds = %8
  %13 = load i32, i32* %3, align 4
  %14 = sext i32 %13 to i64
  %15 = getelementptr inbounds [50 x [33 x i8]], [50 x [33 x i8]]* %5, i64 0, i64 %14
  %16 = getelementptr inbounds [33 x i8], [33 x i8]* %15, i64 0, i64 0
  %17 = call i32 (i8*, ...) @__isoc99_scanf(i8* getelementptr inbounds ([3 x i8], [3 x i8]* @.str.1, i64 0, i64 0), i8* %16)
  br label %18

18:                                               ; preds = %12
  %19 = load i32, i32* %3, align 4
  %20 = add nsw i32 %19, 1
  store i32 %20, i32* %3, align 4
  br label %8

21:                                               ; preds = %8
  store i32 0, i32* %3, align 4
  br label %22

22:                                               ; preds = %144, %21
  %23 = load i32, i32* %3, align 4
  %24 = load i32, i32* %2, align 4
  %25 = icmp slt i32 %23, %24
  br i1 %25, label %26, label %147

26:                                               ; preds = %22
  store i32 0, i32* %6, align 4
  %27 = load i32, i32* %3, align 4
  %28 = sext i32 %27 to i64
  %29 = getelementptr inbounds [50 x [33 x i8]], [50 x [33 x i8]]* %5, i64 0, i64 %28
  %30 = getelementptr inbounds [33 x i8], [33 x i8]* %29, i64 0, i64 0
  %31 = call i64 @strlen(i8* %30) #3
  %32 = trunc i64 %31 to i32
  store i32 %32, i32* %6, align 4
  store i32 0, i32* %4, align 4
  br label %33

33:                                               ; preds = %48, %26
  %34 = load i32, i32* %4, align 4
  %35 = load i32, i32* %6, align 4
  %36 = sub nsw i32 %35, 3
  %37 = icmp slt i32 %34, %36
  br i1 %37, label %38, label %51

38:                                               ; preds = %33
  %39 = load i32, i32* %3, align 4
  %40 = sext i32 %39 to i64
  %41 = getelementptr inbounds [50 x [33 x i8]], [50 x [33 x i8]]* %5, i64 0, i64 %40
  %42 = load i32, i32* %4, align 4
  %43 = sext i32 %42 to i64
  %44 = getelementptr inbounds [33 x i8], [33 x i8]* %41, i64 0, i64 %43
  %45 = load i8, i8* %44, align 1
  %46 = sext i8 %45 to i32
  %47 = call i32 (i8*, ...) @printf(i8* getelementptr inbounds ([3 x i8], [3 x i8]* @.str.2, i64 0, i64 0), i32 %46)
  br label %48

48:                                               ; preds = %38
  %49 = load i32, i32* %4, align 4
  %50 = add nsw i32 %49, 1
  store i32 %50, i32* %4, align 4
  br label %33

51:                                               ; preds = %33
  %52 = load i32, i32* %3, align 4
  %53 = sext i32 %52 to i64
  %54 = getelementptr inbounds [50 x [33 x i8]], [50 x [33 x i8]]* %5, i64 0, i64 %53
  %55 = load i32, i32* %6, align 4
  %56 = sub nsw i32 %55, 3
  %57 = sext i32 %56 to i64
  %58 = getelementptr inbounds [33 x i8], [33 x i8]* %54, i64 0, i64 %57
  %59 = load i8, i8* %58, align 1
  %60 = sext i8 %59 to i32
  %61 = icmp eq i32 %60, 105
  br i1 %61, label %62, label %86

62:                                               ; preds = %51
  %63 = load i32, i32* %3, align 4
  %64 = sext i32 %63 to i64
  %65 = getelementptr inbounds [50 x [33 x i8]], [50 x [33 x i8]]* %5, i64 0, i64 %64
  %66 = load i32, i32* %6, align 4
  %67 = sub nsw i32 %66, 2
  %68 = sext i32 %67 to i64
  %69 = getelementptr inbounds [33 x i8], [33 x i8]* %65, i64 0, i64 %68
  %70 = load i8, i8* %69, align 1
  %71 = sext i8 %70 to i32
  %72 = icmp eq i32 %71, 110
  br i1 %72, label %73, label %86

73:                                               ; preds = %62
  %74 = load i32, i32* %3, align 4
  %75 = sext i32 %74 to i64
  %76 = getelementptr inbounds [50 x [33 x i8]], [50 x [33 x i8]]* %5, i64 0, i64 %75
  %77 = load i32, i32* %6, align 4
  %78 = sub nsw i32 %77, 1
  %79 = sext i32 %78 to i64
  %80 = getelementptr inbounds [33 x i8], [33 x i8]* %76, i64 0, i64 %79
  %81 = load i8, i8* %80, align 1
  %82 = sext i8 %81 to i32
  %83 = icmp eq i32 %82, 103
  br i1 %83, label %84, label %86

84:                                               ; preds = %73
  %85 = call i32 (i8*, ...) @printf(i8* getelementptr inbounds ([2 x i8], [2 x i8]* @.str.3, i64 0, i64 0))
  br label %86

86:                                               ; preds = %84, %73, %62, %51
  %87 = load i32, i32* %3, align 4
  %88 = sext i32 %87 to i64
  %89 = getelementptr inbounds [50 x [33 x i8]], [50 x [33 x i8]]* %5, i64 0, i64 %88
  %90 = load i32, i32* %6, align 4
  %91 = sub nsw i32 %90, 2
  %92 = sext i32 %91 to i64
  %93 = getelementptr inbounds [33 x i8], [33 x i8]* %89, i64 0, i64 %92
  %94 = load i8, i8* %93, align 1
  %95 = sext i8 %94 to i32
  %96 = icmp eq i32 %95, 101
  br i1 %96, label %97, label %108

97:                                               ; preds = %86
  %98 = load i32, i32* %3, align 4
  %99 = sext i32 %98 to i64
  %100 = getelementptr inbounds [50 x [33 x i8]], [50 x [33 x i8]]* %5, i64 0, i64 %99
  %101 = load i32, i32* %6, align 4
  %102 = sub nsw i32 %101, 1
  %103 = sext i32 %102 to i64
  %104 = getelementptr inbounds [33 x i8], [33 x i8]* %100, i64 0, i64 %103
  %105 = load i8, i8* %104, align 1
  %106 = sext i8 %105 to i32
  %107 = icmp eq i32 %106, 114
  br i1 %107, label %130, label %108

108:                                              ; preds = %97, %86
  %109 = load i32, i32* %3, align 4
  %110 = sext i32 %109 to i64
  %111 = getelementptr inbounds [50 x [33 x i8]], [50 x [33 x i8]]* %5, i64 0, i64 %110
  %112 = load i32, i32* %6, align 4
  %113 = sub nsw i32 %112, 2
  %114 = sext i32 %113 to i64
  %115 = getelementptr inbounds [33 x i8], [33 x i8]* %111, i64 0, i64 %114
  %116 = load i8, i8* %115, align 1
  %117 = sext i8 %116 to i32
  %118 = icmp eq i32 %117, 108
  br i1 %118, label %119, label %141

119:                                              ; preds = %108
  %120 = load i32, i32* %3, align 4
  %121 = sext i32 %120 to i64
  %122 = getelementptr inbounds [50 x [33 x i8]], [50 x [33 x i8]]* %5, i64 0, i64 %121
  %123 = load i32, i32* %6, align 4
  %124 = sub nsw i32 %123, 1
  %125 = sext i32 %124 to i64
  %126 = getelementptr inbounds [33 x i8], [33 x i8]* %122, i64 0, i64 %125
  %127 = load i8, i8* %126, align 1
  %128 = sext i8 %127 to i32
  %129 = icmp eq i32 %128, 121
  br i1 %129, label %130, label %141

130:                                              ; preds = %119, %97
  %131 = load i32, i32* %3, align 4
  %132 = sext i32 %131 to i64
  %133 = getelementptr inbounds [50 x [33 x i8]], [50 x [33 x i8]]* %5, i64 0, i64 %132
  %134 = load i32, i32* %6, align 4
  %135 = sub nsw i32 %134, 3
  %136 = sext i32 %135 to i64
  %137 = getelementptr inbounds [33 x i8], [33 x i8]* %133, i64 0, i64 %136
  %138 = load i8, i8* %137, align 1
  %139 = sext i8 %138 to i32
  %140 = call i32 (i8*, ...) @printf(i8* getelementptr inbounds ([4 x i8], [4 x i8]* @.str.4, i64 0, i64 0), i32 %139)
  br label %143

141:                                              ; preds = %119, %108
  %142 = call i32 (i8*, ...) @printf(i8* getelementptr inbounds ([2 x i8], [2 x i8]* @.str.3, i64 0, i64 0))
  br label %143

143:                                              ; preds = %141, %130
  br label %144

144:                                              ; preds = %143
  %145 = load i32, i32* %3, align 4
  %146 = add nsw i32 %145, 1
  store i32 %146, i32* %3, align 4
  br label %22

147:                                              ; preds = %22
  ret i32 0
}

declare dso_local i32 @__isoc99_scanf(i8*, ...) #1

; Function Attrs: nounwind readonly
declare dso_local i64 @strlen(i8*) #2

declare dso_local i32 @printf(i8*, ...) #1


!llvm.module.flags = !{!0}
!llvm.ident = !{!1}

!0 = !{i32 1, !"wchar_size", i32 4}
!1 = !{!"clang version 10.0.0-4ubuntu1 "}
